Certificate:
    Data:
        Version: 3 (0x2)
        Serial Number:
            b0:7d:c0:9d:b5:fd:81:01:ff:5b:fc:4e:2e:03:f7:13
        Signature Algorithm: sha512WithRSAEncryption
        Issuer: C=ES, ST=Castellon, L=Castellon de la Plana, O=Especializacion Ciberseguridad, OU=iescaminas-edu-intermedia, CN=Easy-RSA Sub-CA/emailAddress=jlleo@iescaminas-edu.mylocal
        Validity
            Not Before: Feb 17 17:55:06 2025 GMT
            Not After : Feb 17 17:55:06 2026 GMT
        Subject: C=ES, ST=Castellon, L=Castellon de la Plana, O=Especializacion Ciberseguridad, OU=iescaminas-edu-intermedia, CN=iescaminas-edu.mylocal/emailAddress=jlleo@iescaminas-edu.mylocal
        Subject Public Key Info:
            Public Key Algorithm: rsaEncryption
                Public-Key: (2048 bit)
                Modulus:
                    00:b8:dd:38:25:52:97:b7:72:b0:ff:21:2f:6d:25:
                    2b:8e:7a:d6:42:c8:03:ef:20:b2:c0:4a:3e:0e:54:
                    67:6b:d3:c4:95:ad:a1:6c:dc:2f:03:68:56:26:3d:
                    4b:c2:4c:09:41:05:85:12:16:1c:77:6d:d7:93:89:
                    f4:28:ee:be:1d:dd:fc:c9:37:00:ac:c7:c4:46:a5:
                    02:bb:0e:7e:ec:24:47:91:0a:70:59:9b:15:51:ce:
                    1a:bb:ed:d5:29:c7:71:d5:0b:6b:a8:7a:93:7c:4d:
                    7d:f2:81:b9:f3:e7:52:9f:98:86:16:bd:b4:c3:63:
                    ef:d2:96:99:a9:9f:f6:af:a2:df:25:f3:6c:e0:6b:
                    fc:5a:d9:8a:10:a1:d0:54:a9:1f:42:9d:f7:0d:13:
                    fe:d9:f0:24:8f:60:61:23:1c:bd:80:fd:e5:ac:7f:
                    54:98:ec:f7:c3:be:06:3d:df:8a:90:be:d7:dc:3b:
                    80:49:8b:0b:f0:71:d2:13:d3:67:52:0e:64:fc:d2:
                    93:fe:6c:73:90:db:64:50:e2:1c:8c:81:72:8a:f9:
                    cb:da:52:20:5d:c7:eb:b4:8f:83:fb:b8:96:c1:22:
                    78:95:f1:d4:f5:d9:f9:9b:bb:28:ca:ea:9f:13:25:
                    32:82:70:7d:b3:d9:9a:89:aa:73:e2:f3:af:2d:88:
                    30:33
                Exponent: 65537 (0x10001)
        X509v3 extensions:
            X509v3 Basic Constraints: 
                CA:FALSE
            X509v3 Subject Key Identifier: 
                AD:63:BE:57:D2:BC:03:8F:9B:7F:B5:D3:A9:EC:BE:0F:74:6A:72:54
            X509v3 Authority Key Identifier: 
                keyid:00:30:26:B2:D5:77:63:92:87:DC:3E:BD:A0:1C:AD:7A:66:CC:72:9C
                DirName:/C=ES/ST=Castellon/L=Castellon de la Plana/O=Especializacion Ciberseguridad/OU=iescaminas-edu/CN=Easy-RSA CA/emailAddress=jlleo@iescaminas-edu.mylocal
                serial:A4:AC:B6:D8:87:96:0D:CF:DE:4F:E4:E7:54:5E:61:0E
            X509v3 Extended Key Usage: 
                TLS Web Server Authentication
            X509v3 Key Usage: 
                Digital Signature, Key Encipherment
            X509v3 Subject Alternative Name: 
                DNS:iescaminas-edu.mylocal
    Signature Algorithm: sha512WithRSAEncryption
    Signature Value:
        29:44:4f:57:8f:15:a2:8f:d3:ee:63:25:42:8b:5c:d6:ac:05:
        1f:db:0c:df:73:04:ec:e8:75:49:70:a6:df:f0:ff:cf:24:ec:
        f6:7e:e3:18:e8:3d:63:ad:36:c8:a4:99:db:cf:b7:b5:81:90:
        26:f4:e9:65:13:55:97:fc:8a:73:17:06:e0:1a:c1:ac:41:ee:
        9b:cd:55:bb:9f:0d:58:dc:7c:ff:b6:9b:9d:58:97:02:ae:84:
        c8:03:ee:a9:a3:08:84:de:22:91:27:e9:62:92:70:35:8e:94:
        a5:0c:da:bd:40:96:d1:de:9e:8e:94:e4:a2:84:02:80:70:0f:
        8f:24:33:b1:cd:76:14:54:19:0b:9d:d7:32:fe:ca:79:31:4b:
        7a:e7:25:1d:6e:33:39:b2:d3:e1:21:3e:6f:af:45:f0:59:01:
        41:e6:ef:7d:2b:46:ac:6c:09:59:cd:ee:a7:ec:01:40:3d:06:
        15:97:6d:4f:79:e5:fd:b8:a5:14:a6:1c:3d:63:49:65:d5:22:
        cb:79:58:2e:9c:b9:79:a1:18:b9:7d:84:bd:6a:54:0e:6a:45:
        24:fd:8b:d6:7a:bb:55:55:de:cb:de:10:6f:ea:2c:9b:92:e6:
        b0:0e:ef:c6:42:c0:34:12:86:70:e1:15:14:32:96:f5:c8:d1:
        57:0b:27:05
-----BEGIN CERTIFICATE-----
MIIFujCCBKKgAwIBAgIRALB9wJ21/YEB/1v8Ti4D9xMwDQYJKoZIhvcNAQENBQAw
gdUxCzAJBgNVBAYTAkVTMRIwEAYDVQQIDAlDYXN0ZWxsb24xHjAcBgNVBAcMFUNh
c3RlbGxvbiBkZSBsYSBQbGFuYTEnMCUGA1UECgweRXNwZWNpYWxpemFjaW9uIENp
YmVyc2VndXJpZGFkMSIwIAYDVQQLDBlpZXNjYW1pbmFzLWVkdS1pbnRlcm1lZGlh
MRgwFgYDVQQDDA9FYXN5LVJTQSBTdWItQ0ExKzApBgkqhkiG9w0BCQEWHGpsbGVv
QGllc2NhbWluYXMtZWR1Lm15bG9jYWwwHhcNMjUwMjE3MTc1NTA2WhcNMjYwMjE3
MTc1NTA2WjCB3DELMAkGA1UEBhMCRVMxEjAQBgNVBAgMCUNhc3RlbGxvbjEeMBwG
A1UEBwwVQ2FzdGVsbG9uIGRlIGxhIFBsYW5hMScwJQYDVQQKDB5Fc3BlY2lhbGl6
YWNpb24gQ2liZXJzZWd1cmlkYWQxIjAgBgNVBAsMGWllc2NhbWluYXMtZWR1LWlu
dGVybWVkaWExHzAdBgNVBAMMFmllc2NhbWluYXMtZWR1Lm15bG9jYWwxKzApBgkq
hkiG9w0BCQEWHGpsbGVvQGllc2NhbWluYXMtZWR1Lm15bG9jYWwwggEiMA0GCSqG
SIb3DQEBAQUAA4IBDwAwggEKAoIBAQC43TglUpe3crD/IS9tJSuOetZCyAPvILLA
Sj4OVGdr08SVraFs3C8DaFYmPUvCTAlBBYUSFhx3bdeTifQo7r4d3fzJNwCsx8RG
pQK7Dn7sJEeRCnBZmxVRzhq77dUpx3HVC2uoepN8TX3ygbnz51KfmIYWvbTDY+/S
lpmpn/avot8l82zga/xa2YoQodBUqR9CnfcNE/7Z8CSPYGEjHL2A/eWsf1SY7PfD
vgY934qQvtfcO4BJiwvwcdIT02dSDmT80pP+bHOQ22RQ4hyMgXKK+cvaUiBdx+u0
j4P7uJbBIniV8dT12fmbuyjK6p8TJTKCcH2z2ZqJqnPi868tiDAzAgMBAAGjggF6
MIIBdjAJBgNVHRMEAjAAMB0GA1UdDgQWBBStY75X0rwDj5t/tdOp7L4PdGpyVDCC
AQMGA1UdIwSB+zCB+IAUADAmstV3Y5KH3D69oBytembMcpyhgcykgckwgcYxCzAJ
BgNVBAYTAkVTMRIwEAYDVQQIDAlDYXN0ZWxsb24xHjAcBgNVBAcMFUNhc3RlbGxv
biBkZSBsYSBQbGFuYTEnMCUGA1UECgweRXNwZWNpYWxpemFjaW9uIENpYmVyc2Vn
dXJpZGFkMRcwFQYDVQQLDA5pZXNjYW1pbmFzLWVkdTEUMBIGA1UEAwwLRWFzeS1S
U0EgQ0ExKzApBgkqhkiG9w0BCQEWHGpsbGVvQGllc2NhbWluYXMtZWR1Lm15bG9j
YWyCEQCkrLbYh5YNz95P5OdUXmEOMBMGA1UdJQQMMAoGCCsGAQUFBwMBMAsGA1Ud
DwQEAwIFoDAhBgNVHREEGjAYghZpZXNjYW1pbmFzLWVkdS5teWxvY2FsMA0GCSqG
SIb3DQEBDQUAA4IBAQApRE9XjxWij9PuYyVCi1zWrAUf2wzfcwTs6HVJcKbf8P/P
JOz2fuMY6D1jrTbIpJnbz7e1gZAm9OllE1WX/IpzFwbgGsGsQe6bzVW7nw1Y3Hz/
tpudWJcCroTIA+6powiE3iKRJ+liknA1jpSlDNq9QJbR3p6OlOSihAKAcA+PJDOx
zXYUVBkLndcy/sp5MUt65yUdbjM5stPhIT5vr0XwWQFB5u99K0asbAlZze6n7AFA
PQYVl21PeeX9uKUUphw9Y0ll1SLLeVgunLl5oRi5fYS9alQOakUk/YvWertVVd7L
3hBv6iybkuawDu/GQsA0EoZw4RUUMpb1yNFXCycF
-----END CERTIFICATE-----
